target datalayout = "e-m:e-p270:32:32-p271:32:32-p272:64:64-i64:64-i128:128-f80:128-n8:16:32:64-S128"
target triple = "x86_64-pc-linux-gnu"

%struct._ir_list = type { %struct._ir_array, i32 }
%struct._ir_array = type { ptr, i32 }
%struct._ir_ctx = type { ptr, i32, i32, i32, i32, i32, i32, i32, i32, i32, i32, %struct._ir_insn, ptr, ptr, ptr, i32, i32, i32, ptr, ptr, ptr, ptr, ptr, i32, i32, i64, i32, i32, i32, i64, i32, i32, i32, i32, ptr, ptr, ptr, ptr, ptr, ptr, %union.anon.13, ptr, i32, i32, i32, i64, i32, i32, i32, ptr, ptr, ptr, ptr, %struct._ir_strtab, [61 x i32], [14 x i32] }
%struct._ir_insn = type { %struct.anon, %union.anon.5 }
%struct.anon = type { %union.anon, %union.anon.4 }
%union.anon = type { i32 }
%union.anon.4 = type { i32 }
%union.anon.5 = type { %union._ir_val }
%union._ir_val = type { double }
%union.anon.13 = type { ptr }
%struct._ir_strtab = type { ptr, i32, i32, i32, i32, ptr, i32, i32 }
%struct._ir_block = type { i32, i32, i32, i32, i32, i32, i32, %union.anon.14, %union.anon.15, i32, i32, i32, i32 }
%union.anon.14 = type { i32 }
%union.anon.15 = type { i32 }
%struct.anon.0 = type { %union.anon.1, %union.anon.3 }
%union.anon.1 = type { i16 }
%union.anon.3 = type { i16 }

; Function Attrs: nounwind uwtable
define internal i32 @ir_gcm_schedule_early(ptr noundef %0, ptr noundef %1, i32 noundef %2, ptr noundef %3) #0 {
  %5 = alloca ptr, align 8
  %6 = alloca i32, align 4
  %7 = alloca i32, align 4
  %8 = alloca ptr, align 8
  %9 = alloca i32, align 4
  %10 = alloca ptr, align 8
  %11 = alloca ptr, align 8
  %12 = alloca i32, align 4
  %13 = alloca ptr, align 8
  %14 = alloca i32, align 4
  %15 = alloca ptr, align 8
  %16 = alloca i32, align 4
  %17 = alloca ptr, align 8
  %18 = alloca i32, align 4
  %19 = alloca i32, align 4
  %20 = alloca i32, align 4
  %21 = alloca i8, align 1
  store ptr %0, ptr %10, align 8
  store ptr %1, ptr %11, align 8
  store i32 %2, ptr %12, align 4
  store ptr %3, ptr %13, align 8
  store i8 1, ptr %21, align 1
  %22 = load ptr, ptr %10, align 8
  %23 = getelementptr inbounds %struct._ir_ctx, ptr %22, i32 0, i32 0
  %24 = load ptr, ptr %23, align 8
  %25 = load i32, ptr %12, align 4
  %26 = sext i32 %25 to i64
  %27 = getelementptr inbounds %struct._ir_insn, ptr %24, i64 %26
  store ptr %27, ptr %17, align 8
  store i32 1, ptr %20, align 4
  store i32 0, ptr %18, align 4
  %28 = load ptr, ptr %17, align 8
  %29 = getelementptr inbounds %struct._ir_insn, ptr %28, i32 0, i32 0
  %30 = getelementptr inbounds %struct.anon, ptr %29, i32 0, i32 0
  %31 = getelementptr inbounds %struct.anon.0, ptr %30, i32 0, i32 1
  %32 = load i16, ptr %31, align 2
  %33 = zext i16 %32 to i32
  store i32 %33, ptr %14, align 4
  %34 = load ptr, ptr %17, align 8
  %35 = getelementptr inbounds %struct._ir_insn, ptr %34, i32 0, i32 0
  %36 = getelementptr inbounds %struct.anon, ptr %35, i32 0, i32 0
  %37 = getelementptr inbounds [1 x i32], ptr %36, i64 0, i64 0
  %38 = getelementptr inbounds i32, ptr %37, i64 1
  store ptr %38, ptr %15, align 8
  br label %39

39:                                               ; preds = %91, %4
  %40 = load i32, ptr %14, align 4
  %41 = icmp sgt i32 %40, 0
  br i1 %41, label %42, label %96

42:                                               ; preds = %39
  %43 = load ptr, ptr %15, align 8
  %44 = load i32, ptr %43, align 4
  store i32 %44, ptr %16, align 4
  %45 = load i32, ptr %16, align 4
  %46 = icmp sgt i32 %45, 0
  br i1 %46, label %47, label %90

47:                                               ; preds = %42
  %48 = load ptr, ptr %11, align 8
  %49 = load i32, ptr %16, align 4
  %50 = sext i32 %49 to i64
  %51 = getelementptr inbounds i32, ptr %48, i64 %50
  %52 = load i32, ptr %51, align 4
  store i32 %52, ptr %19, align 4
  %53 = load i32, ptr %19, align 4
  %54 = icmp eq i32 %53, 0
  br i1 %54, label %55, label %61

55:                                               ; preds = %47
  %56 = load ptr, ptr %10, align 8
  %57 = load ptr, ptr %11, align 8
  %58 = load i32, ptr %16, align 4
  %59 = load ptr, ptr %13, align 8
  %60 = call i32 @ir_gcm_schedule_early(ptr noundef %56, ptr noundef %57, i32 noundef %58, ptr noundef %59)
  store i32 %60, ptr %19, align 4
  br label %68

61:                                               ; preds = %47
  %62 = load i32, ptr %19, align 4
  %63 = icmp slt i32 %62, 0
  br i1 %63, label %64, label %67

64:                                               ; preds = %61
  %65 = load i32, ptr %19, align 4
  %66 = sub nsw i32 0, %65
  store i32 %66, ptr %19, align 4
  br label %67

67:                                               ; preds = %64, %61
  br label %68

68:                                               ; preds = %67, %55
  %69 = load i32, ptr %18, align 4
  %70 = load ptr, ptr %10, align 8
  %71 = getelementptr inbounds %struct._ir_ctx, ptr %70, i32 0, i32 18
  %72 = load ptr, ptr %71, align 8
  %73 = load i32, ptr %19, align 4
  %74 = sext i32 %73 to i64
  %75 = getelementptr inbounds %struct._ir_block, ptr %72, i64 %74
  %76 = getelementptr inbounds %struct._ir_block, ptr %75, i32 0, i32 8
  %77 = load i32, ptr %76, align 4
  %78 = icmp ult i32 %69, %77
  br i1 %78, label %79, label %89

79:                                               ; preds = %68
  %80 = load ptr, ptr %10, align 8
  %81 = getelementptr inbounds %struct._ir_ctx, ptr %80, i32 0, i32 18
  %82 = load ptr, ptr %81, align 8
  %83 = load i32, ptr %19, align 4
  %84 = sext i32 %83 to i64
  %85 = getelementptr inbounds %struct._ir_block, ptr %82, i64 %84
  %86 = getelementptr inbounds %struct._ir_block, ptr %85, i32 0, i32 8
  %87 = load i32, ptr %86, align 4
  store i32 %87, ptr %18, align 4
  %88 = load i32, ptr %19, align 4
  store i32 %88, ptr %20, align 4
  br label %89

89:                                               ; preds = %79, %68
  store i8 0, ptr %21, align 1
  br label %90

90:                                               ; preds = %89, %42
  br label %91

91:                                               ; preds = %90
  %92 = load ptr, ptr %15, align 8
  %93 = getelementptr inbounds i32, ptr %92, i32 1
  store ptr %93, ptr %15, align 8
  %94 = load i32, ptr %14, align 4
  %95 = add nsw i32 %94, -1
  store i32 %95, ptr %14, align 4
  br label %39

96:                                               ; preds = %39
  %97 = load i32, ptr %20, align 4
  %98 = sub nsw i32 0, %97
  %99 = load ptr, ptr %11, align 8
  %100 = load i32, ptr %12, align 4
  %101 = sext i32 %100 to i64
  %102 = getelementptr inbounds i32, ptr %99, i64 %101
  store i32 %98, ptr %102, align 4
  %103 = load i8, ptr %21, align 1
  %104 = trunc i8 %103 to i1
  %105 = xor i1 %104, true
  %106 = xor i1 %105, true
  %107 = zext i1 %106 to i32
  %108 = sext i32 %107 to i64
  %109 = icmp ne i64 %108, 0
  br i1 %109, label %110, label %125

110:                                              ; preds = %96
  %111 = load ptr, ptr %13, align 8
  %112 = load i32, ptr %12, align 4
  store ptr %111, ptr %8, align 8
  store i32 %112, ptr %9, align 4
  %113 = load ptr, ptr %8, align 8
  %114 = load ptr, ptr %8, align 8
  %115 = getelementptr inbounds %struct._ir_list, ptr %114, i32 0, i32 1
  %116 = load i32, ptr %115, align 8
  %117 = add i32 %116, 1
  store i32 %117, ptr %115, align 8
  %118 = load i32, ptr %9, align 4
  store ptr %113, ptr %5, align 8
  store i32 %116, ptr %6, align 4
  store i32 %118, ptr %7, align 4
  %119 = load i32, ptr %7, align 4
  %120 = load ptr, ptr %5, align 8
  %121 = load ptr, ptr %120, align 8
  %122 = load i32, ptr %6, align 4
  %123 = zext i32 %122 to i64
  %124 = getelementptr inbounds i32, ptr %121, i64 %123
  store i32 %119, ptr %124, align 4
  br label %125

125:                                              ; preds = %110, %96
  %126 = load i32, ptr %20, align 4
  ret i32 %126
}