; Function Attrs: nofree nosync nounwind memory(readwrite, inaccessiblemem: none) uwtable
define internal fastcc i32 @ir_gcm_schedule_early(ptr nocapture noundef readonly %0, ptr nocapture noundef %1, i32 noundef %2, ptr nocapture noundef %3) unnamed_addr #1 {
  %5 = load ptr, ptr %0, align 8
  %6 = zext nneg i32 %2 to i64
  %7 = getelementptr inbounds %struct._ir_insn, ptr %5, i64 %6
  %8 = getelementptr inbounds i8, ptr %7, i64 2
  %9 = load i16, ptr %8, align 2
  %.not56 = icmp eq i16 %9, 0
  br i1 %.not56, label %._crit_edge.thread, label %.lr.ph

._crit_edge.thread:                               ; preds = %4
  %10 = getelementptr inbounds i32, ptr %1, i64 %6
  store i32 -1, ptr %10, align 4
  br label %37

.lr.ph:                                           ; preds = %4
  %11 = zext i16 %9 to i32
  %12 = getelementptr inbounds i8, ptr %0, i64 104
  br label %13

13:                                               ; preds = %.lr.ph, %30
  %.pn = phi ptr [ %7, %.lr.ph ], [ %.04354, %30 ]
  %.053 = phi i8 [ 1, %.lr.ph ], [ %.1, %30 ]
  %.03652 = phi i32 [ 1, %.lr.ph ], [ %.2, %30 ]
  %.03951 = phi i32 [ 0, %.lr.ph ], [ %.241, %30 ]
  %.04250 = phi i32 [ %11, %.lr.ph ], [ %31, %30 ]
  %.04354 = getelementptr inbounds i8, ptr %.pn, i64 4
  %14 = load i32, ptr %.04354, align 4
  %15 = icmp sgt i32 %14, 0
  br i1 %15, label %16, label %30

16:                                               ; preds = %13
  %17 = zext nneg i32 %14 to i64
  %18 = getelementptr inbounds i32, ptr %1, i64 %17
  %19 = load i32, ptr %18, align 4
  %20 = icmp eq i32 %19, 0
  br i1 %20, label %21, label %23

21:                                               ; preds = %16
  %22 = tail call fastcc i32 @ir_gcm_schedule_early(ptr noundef nonnull %0, ptr noundef nonnull %1, i32 noundef %14, ptr noundef %3)
  br label %24

23:                                               ; preds = %16
  %spec.select = tail call i32 @llvm.abs.i32(i32 %19, i1 true)
  br label %24

24:                                               ; preds = %23, %21
  %.038 = phi i32 [ %22, %21 ], [ %spec.select, %23 ]
  %25 = load ptr, ptr %12, align 8
  %26 = sext i32 %.038 to i64
  %27 = getelementptr inbounds %struct._ir_block, ptr %25, i64 %26, i32 8
  %28 = load i32, ptr %27, align 4
  %29 = icmp ult i32 %.03951, %28
  %spec.select47 = tail call i32 @llvm.umax.i32(i32 %.03951, i32 %28)
  %spec.select48 = select i1 %29, i32 %.038, i32 %.03652
  br label %30

30:                                               ; preds = %13, %24
  %.241 = phi i32 [ %spec.select47, %24 ], [ %.03951, %13 ]
  %.2 = phi i32 [ %spec.select48, %24 ], [ %.03652, %13 ]
  %.1 = phi i8 [ 0, %24 ], [ %.053, %13 ]
  %31 = add nsw i32 %.04250, -1
  %32 = icmp sgt i32 %.04250, 1
  br i1 %32, label %13, label %._crit_edge

._crit_edge:                                      ; preds = %30
  %33 = and i8 %.1, 1
  %34 = icmp eq i8 %33, 0
  %35 = sub nsw i32 0, %.2
  %36 = getelementptr inbounds i32, ptr %1, i64 %6
  store i32 %35, ptr %36, align 4
  br i1 %34, label %44, label %37

37:                                               ; preds = %._crit_edge.thread, %._crit_edge
  %.036.lcssa59 = phi i32 [ 1, %._crit_edge.thread ], [ %.2, %._crit_edge ]
  %38 = getelementptr inbounds i8, ptr %3, i64 16
  %39 = load i32, ptr %38, align 8
  %40 = add i32 %39, 1
  store i32 %40, ptr %38, align 8
  %41 = load ptr, ptr %3, align 8
  %42 = zext i32 %39 to i64
  %43 = getelementptr inbounds i32, ptr %41, i64 %42
  store i32 %2, ptr %43, align 4
  br label %44

44:                                               ; preds = %37, %._crit_edge
  %.036.lcssa60 = phi i32 [ %.036.lcssa59, %37 ], [ %.2, %._crit_edge ]
  ret i32 %.036.lcssa60
}